target datalayout = "e-m:e-p270:32:32-p271:32:32-p272:64:64-i64:64-i128:128-f80:128-n8:16:32:64-S128"
target triple = "x86_64-pc-linux-gnu"

%struct.RelFileLocator = type { i32, i32, i32 }
%struct.BufferManagerRelation = type { ptr, ptr, i8 }
%struct.PageHeaderData = type { %struct.PageXLogRecPtr, i16, i16, i16, i16, i16, i16, i32, [0 x %struct.ItemIdData] }
%struct.PageXLogRecPtr = type { i32, i32 }
%struct.ItemIdData = type { i32 }

@LocalBufferBlockPointers = external global ptr, align 8
@BufferBlocks = external global ptr, align 8

; Function Attrs: inlinehint nounwind uwtable
define internal ptr @BufferGetBlock(i32 noundef %0) #6 {
  %2 = alloca ptr, align 8
  %3 = alloca i32, align 4
  store i32 %0, ptr %3, align 4
  %4 = load i32, ptr %3, align 4
  %5 = icmp slt i32 %4, 0
  br i1 %5, label %6, label %14

6:                                                ; preds = %1
  %7 = load ptr, ptr @LocalBufferBlockPointers, align 8
  %8 = load i32, ptr %3, align 4
  %9 = sub i32 0, %8
  %10 = sub i32 %9, 1
  %11 = sext i32 %10 to i64
  %12 = getelementptr inbounds ptr, ptr %7, i64 %11
  %13 = load ptr, ptr %12, align 8
  store ptr %13, ptr %2, align 8
  br label %21

14:                                               ; preds = %1
  %15 = load ptr, ptr @BufferBlocks, align 8
  %16 = load i32, ptr %3, align 4
  %17 = sub i32 %16, 1
  %18 = sext i32 %17 to i64
  %19 = mul i64 %18, 8192
  %20 = getelementptr inbounds nuw i8, ptr %15, i64 %19
  store ptr %20, ptr %2, align 8
  br label %21

21:                                               ; preds = %14, %6
  %22 = load ptr, ptr %2, align 8
  ret ptr %22
}

; Function Attrs: inlinehint nounwind uwtable
define internal zeroext i1 @PageIsNew(ptr noundef %0) #6 {
  %2 = alloca ptr, align 8
  store ptr %0, ptr %2, align 8
  %3 = load ptr, ptr %2, align 8
  %4 = getelementptr inbounds nuw %struct.PageHeaderData, ptr %3, i32 0, i32 4
  %5 = load i16, ptr %4, align 2
  %6 = zext i16 %5 to i32
  %7 = icmp eq i32 %6, 0
  ret i1 %7
}

; Function Attrs: inlinehint nounwind uwtable
define internal ptr @BufferGetPage(i32 noundef %0) #6 {
  %2 = alloca i32, align 4
  store i32 %0, ptr %2, align 4
  %3 = load i32, ptr %2, align 4
  %4 = call ptr @BufferGetBlock(i32 noundef %3)
  ret ptr %4
}

; Function Attrs: inlinehint nounwind uwtable
define internal zeroext i1 @BufferIsValid(i32 noundef %0) #6 {
  %2 = alloca i32, align 4
  store i32 %0, ptr %2, align 4
  %3 = load i32, ptr %2, align 4
  %4 = icmp ne i32 %3, 0
  ret i1 %4
}

; Function Attrs: nounwind uwtable
define dso_local i32 @XLogReadBufferExtended(i64 %0, i32 %1, i32 noundef %2, i32 noundef %3, i32 noundef %4, i32 noundef %5) #0 {
  %7 = alloca i32, align 4
  %8 = alloca %struct.RelFileLocator, align 4
  %9 = alloca { i64, i32 }, align 4
  %10 = alloca i32, align 4
  %11 = alloca i32, align 4
  %12 = alloca i32, align 4
  %13 = alloca i32, align 4
  %14 = alloca i32, align 4
  %15 = alloca i32, align 4
  %16 = alloca ptr, align 8
  %17 = alloca { i64, i32 }, align 4
  %18 = alloca { i64, i32 }, align 4
  %19 = alloca { i64, i32 }, align 4
  %20 = alloca { i64, i32 }, align 4
  %21 = alloca i32, align 4
  %22 = alloca %struct.BufferManagerRelation, align 8
  %23 = alloca ptr, align 8
  %24 = alloca { i64, i32 }, align 4
  %25 = getelementptr inbounds nuw { i64, i32 }, ptr %9, i32 0, i32 0
  store i64 %0, ptr %25, align 4
  %26 = getelementptr inbounds nuw { i64, i32 }, ptr %9, i32 0, i32 1
  store i32 %1, ptr %26, align 4
  call void @llvm.memcpy.p0.p0.i64(ptr align 4 %8, ptr align 4 %9, i64 12, i1 false)
  store i32 %2, ptr %10, align 4
  store i32 %3, ptr %11, align 4
  store i32 %4, ptr %12, align 4
  store i32 %5, ptr %13, align 4
  call void @llvm.lifetime.start.p0(i64 4, ptr %14) #10
  call void @llvm.lifetime.start.p0(i64 4, ptr %15) #10
  call void @llvm.lifetime.start.p0(i64 8, ptr %16) #10
  %27 = load i32, ptr %13, align 4
  %28 = call zeroext i1 @BufferIsValid(i32 noundef %27)
  br i1 %28, label %29, label %43

29:                                               ; preds = %6
  %30 = load i32, ptr %12, align 4
  %31 = icmp eq i32 %30, 0
  br i1 %31, label %32, label %43

32:                                               ; preds = %29
  %33 = load i32, ptr %10, align 4
  %34 = load i32, ptr %11, align 4
  %35 = load i32, ptr %13, align 4
  call void @llvm.memcpy.p0.p0.i64(ptr align 4 %17, ptr align 4 %8, i64 12, i1 false)
  %36 = getelementptr inbounds nuw { i64, i32 }, ptr %17, i32 0, i32 0
  %37 = load i64, ptr %36, align 4
  %38 = getelementptr inbounds nuw { i64, i32 }, ptr %17, i32 0, i32 1
  %39 = load i32, ptr %38, align 4
  %40 = call zeroext i1 @ReadRecentBuffer(i64 %37, i32 %39, i32 noundef %33, i32 noundef %34, i32 noundef %35)
  br i1 %40, label %41, label %43

41:                                               ; preds = %32
  %42 = load i32, ptr %13, align 4
  store i32 %42, ptr %15, align 4
  br label %92

43:                                               ; preds = %32, %29, %6
  call void @llvm.memcpy.p0.p0.i64(ptr align 4 %18, ptr align 4 %8, i64 12, i1 false)
  %44 = getelementptr inbounds nuw { i64, i32 }, ptr %18, i32 0, i32 0
  %45 = load i64, ptr %44, align 4
  %46 = getelementptr inbounds nuw { i64, i32 }, ptr %18, i32 0, i32 1
  %47 = load i32, ptr %46, align 4
  %48 = call ptr @smgropen(i64 %45, i32 %47, i32 noundef -1)
  store ptr %48, ptr %16, align 8
  %49 = load ptr, ptr %16, align 8
  %50 = load i32, ptr %10, align 4
  call void @smgrcreate(ptr noundef %49, i32 noundef %50, i1 noundef zeroext true)
  %51 = load ptr, ptr %16, align 8
  %52 = load i32, ptr %10, align 4
  %53 = call i32 @smgrnblocks(ptr noundef %51, i32 noundef %52)
  store i32 %53, ptr %14, align 4
  %54 = load i32, ptr %11, align 4
  %55 = load i32, ptr %14, align 4
  %56 = icmp ult i32 %54, %55
  br i1 %56, label %57, label %66

57:                                               ; preds = %43
  %58 = load i32, ptr %10, align 4
  %59 = load i32, ptr %11, align 4
  %60 = load i32, ptr %12, align 4
  call void @llvm.memcpy.p0.p0.i64(ptr align 4 %19, ptr align 4 %8, i64 12, i1 false)
  %61 = getelementptr inbounds nuw { i64, i32 }, ptr %19, i32 0, i32 0
  %62 = load i64, ptr %61, align 4
  %63 = getelementptr inbounds nuw { i64, i32 }, ptr %19, i32 0, i32 1
  %64 = load i32, ptr %63, align 4
  %65 = call i32 @ReadBufferWithoutRelcache(i64 %62, i32 %64, i32 noundef %58, i32 noundef %59, i32 noundef %60, ptr noundef null, i1 noundef zeroext true)
  store i32 %65, ptr %15, align 4
  br label %91

66:                                               ; preds = %43
  %67 = load i32, ptr %12, align 4
  %68 = icmp eq i32 %67, 0
  br i1 %68, label %69, label %76

69:                                               ; preds = %66
  %70 = load i32, ptr %10, align 4
  %71 = load i32, ptr %11, align 4
  call void @llvm.memcpy.p0.p0.i64(ptr align 4 %20, ptr align 4 %8, i64 12, i1 false)
  %72 = getelementptr inbounds nuw { i64, i32 }, ptr %20, i32 0, i32 0
  %73 = load i64, ptr %72, align 4
  %74 = getelementptr inbounds nuw { i64, i32 }, ptr %20, i32 0, i32 1
  %75 = load i32, ptr %74, align 4
  call void @log_invalid_page(i64 %73, i32 %75, i32 noundef %70, i32 noundef %71, i1 noundef zeroext false)
  store i32 0, ptr %7, align 4
  store i32 1, ptr %21, align 4
  br label %114

76:                                               ; preds = %66
  %77 = load i32, ptr %12, align 4
  %78 = icmp eq i32 %77, 4
  br i1 %78, label %79, label %80

79:                                               ; preds = %76
  store i32 0, ptr %7, align 4
  store i32 1, ptr %21, align 4
  br label %114

80:                                               ; preds = %76
  %81 = getelementptr inbounds nuw %struct.BufferManagerRelation, ptr %22, i32 0, i32 0
  store ptr null, ptr %81, align 8
  %82 = getelementptr inbounds nuw %struct.BufferManagerRelation, ptr %22, i32 0, i32 1
  %83 = load ptr, ptr %16, align 8
  store ptr %83, ptr %82, align 8
  %84 = getelementptr inbounds nuw %struct.BufferManagerRelation, ptr %22, i32 0, i32 2
  store i8 112, ptr %84, align 8
  %85 = getelementptr i8, ptr %22, i64 17
  call void @llvm.memset.p0.i64(ptr align 1 %85, i8 0, i64 7, i1 false)
  %86 = load i32, ptr %10, align 4
  %87 = load i32, ptr %11, align 4
  %88 = add i32 %87, 1
  %89 = load i32, ptr %12, align 4
  %90 = call i32 @ExtendBufferedRelTo(ptr noundef byval(%struct.BufferManagerRelation) align 8 %22, i32 noundef %86, ptr noundef null, i32 noundef 3, i32 noundef %88, i32 noundef %89)
  store i32 %90, ptr %15, align 4
  br label %91

91:                                               ; preds = %80, %57
  br label %92

92:                                               ; preds = %91, %41
  %93 = load i32, ptr %12, align 4
  %94 = icmp eq i32 %93, 0
  br i1 %94, label %95, label %112

95:                                               ; preds = %92
  call void @llvm.lifetime.start.p0(i64 8, ptr %23) #10
  %96 = load i32, ptr %15, align 4
  %97 = call ptr @BufferGetPage(i32 noundef %96)
  store ptr %97, ptr %23, align 8
  %98 = load ptr, ptr %23, align 8
  %99 = call zeroext i1 @PageIsNew(ptr noundef %98)
  br i1 %99, label %100, label %108

100:                                              ; preds = %95
  %101 = load i32, ptr %15, align 4
  call void @ReleaseBuffer(i32 noundef %101)
  %102 = load i32, ptr %10, align 4
  %103 = load i32, ptr %11, align 4
  call void @llvm.memcpy.p0.p0.i64(ptr align 4 %24, ptr align 4 %8, i64 12, i1 false)
  %104 = getelementptr inbounds nuw { i64, i32 }, ptr %24, i32 0, i32 0
  %105 = load i64, ptr %104, align 4
  %106 = getelementptr inbounds nuw { i64, i32 }, ptr %24, i32 0, i32 1
  %107 = load i32, ptr %106, align 4
  call void @log_invalid_page(i64 %105, i32 %107, i32 noundef %102, i32 noundef %103, i1 noundef zeroext true)
  store i32 0, ptr %7, align 4
  store i32 1, ptr %21, align 4
  br label %109

108:                                              ; preds = %95
  store i32 0, ptr %21, align 4
  br label %109

109:                                              ; preds = %108, %100
  call void @llvm.lifetime.end.p0(i64 8, ptr %23) #10
  %110 = load i32, ptr %21, align 4
  switch i32 %110, label %114 [
    i32 0, label %111
  ]

111:                                              ; preds = %109
  br label %112

112:                                              ; preds = %111, %92
  %113 = load i32, ptr %15, align 4
  store i32 %113, ptr %7, align 4
  store i32 1, ptr %21, align 4
  br label %114

114:                                              ; preds = %112, %109, %79, %69
  call void @llvm.lifetime.end.p0(i64 8, ptr %16) #10
  call void @llvm.lifetime.end.p0(i64 4, ptr %15) #10
  call void @llvm.lifetime.end.p0(i64 4, ptr %14) #10
  %115 = load i32, ptr %7, align 4
  ret i32 %115
}