; Function Attrs: nounwind uwtable
define dso_local i32 @XLogReadBufferExtended(i64 %0, i32 %1, i32 noundef %2, i32 noundef %3, i32 noundef %4, i32 noundef %5) local_unnamed_addr #0 {
  %7 = alloca %struct.BufferManagerRelation, align 8
  %8 = icmp ne i32 %5, 0
  %9 = icmp eq i32 %4, 0
  %or.cond = and i1 %9, %8
  br i1 %or.cond, label %10, label %12

10:                                               ; preds = %6
  %11 = tail call zeroext i1 @ReadRecentBuffer(i64 %0, i32 %1, i32 noundef %2, i32 noundef %3, i32 noundef %5) #8
  br i1 %11, label %.thread, label %12

12:                                               ; preds = %10, %6
  %13 = tail call ptr @smgropen(i64 %0, i32 %1, i32 noundef -1) #8
  tail call void @smgrcreate(ptr noundef %13, i32 noundef %2, i1 noundef zeroext true) #8
  %14 = tail call i32 @smgrnblocks(ptr noundef %13, i32 noundef %2) #8
  %15 = icmp ult i32 %3, %14
  br i1 %15, label %25, label %16

16:                                               ; preds = %12
  br i1 %9, label %17, label %18

17:                                               ; preds = %16
  tail call fastcc void @log_invalid_page(i64 %0, i32 %1, i32 noundef %2, i32 noundef %3, i1 noundef zeroext false)
  br label %.critedge

18:                                               ; preds = %16
  %19 = icmp eq i32 %4, 4
  br i1 %19, label %.critedge, label %.thread57

.thread57:                                        ; preds = %18
  store ptr null, ptr %7, align 8
  %20 = getelementptr inbounds nuw i8, ptr %7, i64 8
  store ptr %13, ptr %20, align 8
  %21 = getelementptr inbounds nuw i8, ptr %7, i64 16
  store i8 112, ptr %21, align 8
  %22 = getelementptr inbounds nuw i8, ptr %7, i64 17
  call void @llvm.memset.p0.i64(ptr noundef nonnull align 1 dereferenceable(7) %22, i8 0, i64 7, i1 false)
  %23 = add i32 %3, 1
  %24 = tail call i32 @ExtendBufferedRelTo(ptr noundef nonnull byval(%struct.BufferManagerRelation) align 8 %7, i32 noundef %2, ptr noundef null, i32 noundef 3, i32 noundef %23, i32 noundef %4) #8
  br label %.critedge

25:                                               ; preds = %12
  %26 = tail call i32 @ReadBufferWithoutRelcache(i64 %0, i32 %1, i32 noundef %2, i32 noundef %3, i32 noundef %4, ptr noundef null, i1 noundef zeroext true) #8
  br i1 %9, label %.thread, label %.critedge

.thread:                                          ; preds = %10, %25
  %.05156 = phi i32 [ %26, %25 ], [ %5, %10 ]
  %27 = icmp slt i32 %.05156, 0
  br i1 %27, label %28, label %34

28:                                               ; preds = %.thread
  %29 = load ptr, ptr @LocalBufferBlockPointers, align 8
  %30 = xor i32 %.05156, -1
  %31 = zext nneg i32 %30 to i64
  %32 = getelementptr inbounds nuw ptr, ptr %29, i64 %31
  %33 = load ptr, ptr %32, align 8
  br label %BufferGetPage.exit

34:                                               ; preds = %.thread
  %35 = load ptr, ptr @BufferBlocks, align 8
  %36 = add nsw i32 %.05156, -1
  %37 = sext i32 %36 to i64
  %38 = shl nsw i64 %37, 13
  %39 = getelementptr inbounds nuw i8, ptr %35, i64 %38
  br label %BufferGetPage.exit

BufferGetPage.exit:                               ; preds = %28, %34
  %.0.i.i = phi ptr [ %33, %28 ], [ %39, %34 ]
  %40 = getelementptr i8, ptr %.0.i.i, i64 14
  %.val = load i16, ptr %40, align 2
  %41 = icmp eq i16 %.val, 0
  br i1 %41, label %42, label %.critedge

42:                                               ; preds = %BufferGetPage.exit
  tail call void @ReleaseBuffer(i32 noundef %.05156) #8
  tail call fastcc void @log_invalid_page(i64 %0, i32 %1, i32 noundef %2, i32 noundef %3, i1 noundef zeroext true)
  br label %.critedge

.critedge:                                        ; preds = %.thread57, %25, %BufferGetPage.exit, %42, %18, %17
  %.0 = phi i32 [ 0, %42 ], [ 0, %17 ], [ 0, %18 ], [ %.05156, %BufferGetPage.exit ], [ %26, %25 ], [ %24, %.thread57 ]
  ret i32 %.0
}